; Function Attrs: nounwind uwtable
define dso_local i32 @Curl_setup_conn(ptr noundef %0, ptr noundef writeonly captures(none) initializes((0, 1)) %1) local_unnamed_addr #0 {
  %3 = getelementptr inbounds nuw i8, ptr %0, i64 24
  %4 = load ptr, ptr %3, align 8, !tbaa !223
  %5 = tail call { i64, i32 } @Curl_pgrsTime(ptr noundef %0, i32 noundef 4) #12
  %6 = getelementptr inbounds nuw i8, ptr %4, i64 928
  %7 = load ptr, ptr %6, align 8, !tbaa !203
  %8 = getelementptr inbounds nuw i8, ptr %7, i64 148
  %9 = load i32, ptr %8, align 4, !tbaa !224
  %10 = and i32 %9, 16
  %.not = icmp eq i32 %10, 0
  br i1 %.not, label %11, label %24

11:                                               ; preds = %2
  %12 = getelementptr inbounds nuw i8, ptr %4, i64 520
  %13 = tail call { i64, i32 } @Curl_now() #12
  %14 = extractvalue { i64, i32 } %13, 0
  %15 = extractvalue { i64, i32 } %13, 1
  store i64 %14, ptr %12, align 8, !tbaa !213
  %.sroa.4.0..sroa_idx = getelementptr inbounds nuw i8, ptr %4, i64 528
  store i32 %15, ptr %.sroa.4.0..sroa_idx, align 8, !tbaa !214
  %16 = getelementptr inbounds nuw i8, ptr %4, i64 920
  %17 = load i64, ptr %16, align 8
  %18 = and i64 %17, 64
  %.not16 = icmp eq i64 %18, 0
  br i1 %.not16, label %19, label %.thread

19:                                               ; preds = %11
  %20 = getelementptr inbounds nuw i8, ptr %4, i64 72
  %21 = load ptr, ptr %20, align 8, !tbaa !196
  %22 = tail call i32 @Curl_conn_setup(ptr noundef nonnull %0, ptr noundef nonnull %4, i32 noundef 0, ptr noundef %21, i32 noundef -1) #12
  %.not17 = icmp eq i32 %22, 0
  br i1 %.not17, label %.thread, label %24

.thread:                                          ; preds = %11, %19
  %23 = tail call i32 @Curl_headers_init(ptr noundef nonnull %0) #12
  br label %24

24:                                               ; preds = %19, %.thread, %2
  %storemerge = phi i8 [ 1, %2 ], [ 0, %.thread ], [ 0, %19 ]
  %.0 = phi i32 [ 0, %2 ], [ %23, %.thread ], [ %22, %19 ]
  store i8 %storemerge, ptr %1, align 1, !tbaa !206
  ret i32 %.0
}